
./vsrc/instrom/uart_loopback_echo_test.o:     file format elf32-littleriscv


Disassembly of section .text:

00000000 <_start>:
   0:	100002b7          	lui	t0,0x10000
   4:	00428293          	addi	t0,t0,4 # 10000004 <hang+0xfffff38>
   8:	10000337          	lui	t1,0x10000
   c:	100003b7          	lui	t2,0x10000
  10:	00838393          	addi	t2,t2,8 # 10000008 <hang+0xfffff3c>
  14:	04b00e13          	li	t3,75
  18:	00031fb7          	lui	t6,0x31
  1c:	d40f8f93          	addi	t6,t6,-704 # 30d40 <hang+0x30c74>

00000020 <wait_tx_ready>:
  20:	0002ae83          	lw	t4,0(t0)
  24:	00000013          	nop
  28:	00000013          	nop
  2c:	00000013          	nop
  30:	001eff13          	andi	t5,t4,1
  34:	000f1863          	bnez	t5,44 <do_tx>
  38:	ffff8f93          	addi	t6,t6,-1
  3c:	fe0f92e3          	bnez	t6,20 <wait_tx_ready>
  40:	06c0006f          	j	ac <fail_tx_not_ready>

00000044 <do_tx>:
  44:	01c32023          	sw	t3,0(t1) # 10000000 <hang+0xfffff34>
  48:	00049fb7          	lui	t6,0x49
  4c:	3e0f8f93          	addi	t6,t6,992 # 493e0 <hang+0x49314>

00000050 <wait_rx_valid>:
  50:	0002ae83          	lw	t4,0(t0)
  54:	00000013          	nop
  58:	00000013          	nop
  5c:	00000013          	nop
  60:	002eff13          	andi	t5,t4,2
  64:	000f1863          	bnez	t5,74 <read_rx>
  68:	ffff8f93          	addi	t6,t6,-1
  6c:	fe0f92e3          	bnez	t6,50 <wait_rx_valid>
  70:	0440006f          	j	b4 <fail_rx_timeout>

00000074 <read_rx>:
  74:	0003a403          	lw	s0,0(t2)
  78:	00000013          	nop
  7c:	00000013          	nop
  80:	00000013          	nop
  84:	0ff47413          	zext.b	s0,s0
  88:	03c41a63          	bne	s0,t3,bc <fail_data_mismatch>
  8c:	0002a483          	lw	s1,0(t0)
  90:	00000013          	nop
  94:	00000013          	nop
  98:	00000013          	nop
  9c:	0024f493          	andi	s1,s1,2
  a0:	02049263          	bnez	s1,c4 <fail_rx_not_cleared>

000000a4 <pass>:
  a4:	00100193          	li	gp,1
  a8:	0240006f          	j	cc <hang>

000000ac <fail_tx_not_ready>:
  ac:	00200193          	li	gp,2
  b0:	01c0006f          	j	cc <hang>

000000b4 <fail_rx_timeout>:
  b4:	00300193          	li	gp,3
  b8:	0140006f          	j	cc <hang>

000000bc <fail_data_mismatch>:
  bc:	00400193          	li	gp,4
  c0:	00c0006f          	j	cc <hang>

000000c4 <fail_rx_not_cleared>:
  c4:	00500193          	li	gp,5
  c8:	0040006f          	j	cc <hang>

000000cc <hang>:
  cc:	0000006f          	j	cc <hang>
